target datalayout = "e-m:e-p270:32:32-p271:32:32-p272:64:64-i64:64-i128:128-f80:128-n8:16:32:64-S128"
target triple = "x86_64-pc-linux-gnu"

%"class.llvm::SDValue" = type <{ ptr, i32, [4 x i8] }>
%"class.llvm::DAGTypeLegalizer" = type { ptr, ptr, %"class.llvm::TargetLoweringBase::ValueTypeActionImpl", i32, %"class.llvm::SmallDenseMap", %"class.llvm::SmallDenseMap.0", %"class.llvm::SmallDenseMap.3", %"class.llvm::SmallDenseMap.6", %"class.llvm::SmallDenseMap.3", %"class.llvm::SmallDenseMap.3", %"class.llvm::SmallDenseMap.3", %"class.llvm::SmallDenseMap.6", %"class.llvm::SmallDenseMap.3", %"class.llvm::SmallDenseMap.6", %"class.llvm::SmallDenseMap.3", %"class.llvm::SmallDenseMap.3", %"class.llvm::SmallVector" }
%"class.llvm::TargetLoweringBase::ValueTypeActionImpl" = type { [233 x i8] }
%"class.llvm::SmallDenseMap" = type { i32, i32, %"struct.llvm::AlignedCharArrayUnion" }
%"struct.llvm::AlignedCharArrayUnion" = type { [192 x i8] }
%"class.llvm::SmallDenseMap.0" = type { i32, i32, %"struct.llvm::AlignedCharArrayUnion.2" }
%"struct.llvm::AlignedCharArrayUnion.2" = type { [192 x i8] }
%"class.llvm::SmallDenseMap.6" = type { i32, i32, %"struct.llvm::AlignedCharArrayUnion.8" }
%"struct.llvm::AlignedCharArrayUnion.8" = type { [96 x i8] }
%"class.llvm::SmallDenseMap.3" = type { i32, i32, %"struct.llvm::AlignedCharArrayUnion.5" }
%"struct.llvm::AlignedCharArrayUnion.5" = type { [64 x i8] }
%"class.llvm::SmallVector" = type { %"class.llvm::SmallVectorImpl", %"struct.llvm::SmallVectorStorage" }
%"class.llvm::SmallVectorImpl" = type { %"class.llvm::SmallVectorTemplateBase" }
%"class.llvm::SmallVectorTemplateBase" = type { %"class.llvm::SmallVectorTemplateCommon" }
%"class.llvm::SmallVectorTemplateCommon" = type { %"class.llvm::SmallVectorBase" }
%"class.llvm::SmallVectorBase" = type { ptr, i32, i32 }
%"struct.llvm::SmallVectorStorage" = type { [1024 x i8] }

; Function Attrs: mustprogress nounwind uwtable
define hidden void @_ZN4llvm16DAGTypeLegalizer16ExpandIntRes_AVGEPNS_6SDNodeERNS_7SDValueES4_(ptr noundef nonnull align 8 dereferenceable(2512) %0, ptr noundef %1, ptr noundef nonnull align 8 dereferenceable(12) %2, ptr noundef nonnull align 8 dereferenceable(12) %3) #0 align 2 {
  %5 = alloca ptr, align 8
  %6 = alloca ptr, align 8
  %7 = alloca ptr, align 8
  %8 = alloca ptr, align 8
  %9 = alloca %"class.llvm::SDValue", align 8
  %10 = alloca { ptr, i32 }, align 8
  %11 = alloca %"class.llvm::SDValue", align 8
  store ptr %0, ptr %5, align 8
  store ptr %1, ptr %6, align 8
  store ptr %2, ptr %7, align 8
  store ptr %3, ptr %8, align 8
  %12 = load ptr, ptr %5, align 8
  %13 = getelementptr inbounds nuw %"class.llvm::DAGTypeLegalizer", ptr %12, i32 0, i32 0
  %14 = load ptr, ptr %13, align 8
  %15 = load ptr, ptr %6, align 8
  %16 = getelementptr inbounds nuw %"class.llvm::DAGTypeLegalizer", ptr %12, i32 0, i32 1
  %17 = load ptr, ptr %16, align 8
  %18 = call { ptr, i32 } @_ZNK4llvm14TargetLowering9expandAVGEPNS_6SDNodeERNS_12SelectionDAGE(ptr noundef nonnull align 8 dereferenceable(408123) %14, ptr noundef %15, ptr noundef nonnull align 8 dereferenceable(904) %17)
  store { ptr, i32 } %18, ptr %10, align 8
  call void @llvm.memcpy.p0.p0.i64(ptr align 8 %9, ptr align 8 %10, i64 12, i1 false)
  call void @llvm.memcpy.p0.p0.i64(ptr align 8 %11, ptr align 8 %9, i64 16, i1 false)
  %19 = load ptr, ptr %7, align 8
  %20 = load ptr, ptr %8, align 8
  %21 = getelementptr inbounds nuw { ptr, i32 }, ptr %11, i32 0, i32 0
  %22 = load ptr, ptr %21, align 8
  %23 = getelementptr inbounds nuw { ptr, i32 }, ptr %11, i32 0, i32 1
  %24 = load i32, ptr %23, align 8
  call void @_ZN4llvm16DAGTypeLegalizer12SplitIntegerENS_7SDValueERS1_S2_(ptr noundef nonnull align 8 dereferenceable(2512) %12, ptr %22, i32 %24, ptr noundef nonnull align 8 dereferenceable(12) %19, ptr noundef nonnull align 8 dereferenceable(12) %20)
  ret void
}