; Function Attrs: mustprogress nounwind uwtable
define hidden void @_ZN4llvm16DAGTypeLegalizer16ExpandIntRes_AVGEPNS_6SDNodeERNS_7SDValueES4_(ptr noundef nonnull align 8 dereferenceable(2512) %0, ptr noundef %1, ptr noundef nonnull align 8 dereferenceable(12) %2, ptr noundef nonnull align 8 dereferenceable(12) %3) local_unnamed_addr #0 align 2 {
  %5 = load ptr, ptr %0, align 8
  %6 = getelementptr inbounds nuw i8, ptr %0, i64 8
  %7 = load ptr, ptr %6, align 8
  %8 = tail call { ptr, i32 } @_ZNK4llvm14TargetLowering9expandAVGEPNS_6SDNodeERNS_12SelectionDAGE(ptr noundef nonnull align 8 dereferenceable(408123) %5, ptr noundef %1, ptr noundef nonnull align 8 dereferenceable(904) %7) #17
  %.fca.0.extract = extractvalue { ptr, i32 } %8, 0
  %.fca.1.extract = extractvalue { ptr, i32 } %8, 1
  tail call void @_ZN4llvm16DAGTypeLegalizer12SplitIntegerENS_7SDValueERS1_S2_(ptr noundef nonnull align 8 dereferenceable(2512) %0, ptr %.fca.0.extract, i32 %.fca.1.extract, ptr noundef nonnull align 8 dereferenceable(12) %2, ptr noundef nonnull align 8 dereferenceable(12) %3) #17
  ret void
}